Certificate:
    Data:
        Version: 3 (0x2)
        Serial Number: 26208 (0x6660)
        Signature Algorithm: sha1WithRSAEncryption
        Issuer: C=US, ST=NC, L=Raleigh, CN=localhost.localdomain/emailAddress=slagle@rpath.com
        Validity
            Not Before: Jun  9 17:31:44 2010 GMT
            Not After : Jun  9 17:31:44 2011 GMT
        Subject: C=US, ST=NC, L=Raleigh, CN=localhost.localdomain/emailAddress=slagle@rpath.com
        Subject Public Key Info:
            Public Key Algorithm: rsaEncryption
            RSA Public Key: (1024 bit)
                Modulus (1024 bit):
                    00:bb:d4:5c:52:ff:38:3c:73:52:eb:af:f3:12:08:
                    5c:11:94:37:53:00:2b:7d:55:c0:68:ac:a6:91:ce:
                    7f:30:76:c9:e7:b7:0c:e1:9c:20:69:38:e4:f9:1a:
                    5f:fa:8a:97:65:39:fd:42:6e:f3:16:6f:5a:05:b2:
                    8e:bb:1d:a4:24:6b:a2:74:9b:e8:95:fe:cd:61:24:
                    a8:64:3e:d8:6b:bd:92:8b:6b:80:58:c8:1e:ef:39:
                    2a:e3:d5:81:f3:0d:0e:9a:8c:ae:0e:4a:a4:7a:dd:
                    7c:a0:ac:4a:01:a4:6e:61:6d:ff:e1:fa:33:df:78:
                    5c:8c:5e:4d:14:94:6a:14:67
                Exponent: 65537 (0x10001)
        X509v3 extensions:
            X509v3 Basic Constraints: 
                CA:FALSE
            X509v3 Key Usage: 
                Digital Signature, Non Repudiation, Key Encipherment
            X509v3 Subject Key Identifier: 
                D6:53:CE:C1:93:6F:EF:68:98:F5:A4:59:C0:3E:5F:BB:59:E6:2F:06
            X509v3 Authority Key Identifier: 
                keyid:D6:53:CE:C1:93:6F:EF:68:98:F5:A4:59:C0:3E:5F:BB:59:E6:2F:06
                DirName:/C=US/ST=NC/L=Raleigh/CN=localhost.localdomain/emailAddress=slagle@rpath.com
                serial:66:60

            X509v3 Subject Alternative Name: 
                email:slagle@rpath.com
            X509v3 Issuer Alternative Name: 
                email:slagle@rpath.com
            X509v3 Extended Key Usage: 
                TLS Web Server Authentication, TLS Web Client Authentication
            Netscape Cert Type: 
                SSL Server
            Netscape Comment: 
                Auto-generated self signed test certificate
    Signature Algorithm: sha1WithRSAEncryption
        6c:17:c1:87:20:01:93:8b:3c:dc:31:c1:7e:fc:95:19:3d:0d:
        f3:a1:c2:7b:1c:29:e8:43:e8:dc:7c:a4:14:88:6d:1d:27:d3:
        5e:b0:5a:94:d1:7a:b6:20:91:58:9f:34:47:5b:55:56:9b:e6:
        cb:9e:cd:35:60:a8:db:bf:4d:3e:4d:5e:48:cc:14:17:75:01:
        be:ec:3f:4d:fd:cd:45:e5:72:96:8d:73:e3:08:3b:88:60:c8:
        79:1c:28:30:c8:e6:09:ea:96:dd:a9:ac:18:71:db:53:a2:4d:
        59:3d:f3:c3:3e:8d:4e:bd:a2:31:d5:7e:8b:46:83:88:6d:c7:
        88:50
-----BEGIN CERTIFICATE-----
MIID0TCCAzqgAwIBAgICZmAwDQYJKoZIhvcNAQEFBQAwbTELMAkGA1UEBhMCVVMx
CzAJBgNVBAgTAk5DMRAwDgYDVQQHEwdSYWxlaWdoMR4wHAYDVQQDExVsb2NhbGhv
c3QubG9jYWxkb21haW4xHzAdBgkqhkiG9w0BCQEWEHNsYWdsZUBycGF0aC5jb20w
HhcNMTAwNjA5MTczMTQ0WhcNMTEwNjA5MTczMTQ0WjBtMQswCQYDVQQGEwJVUzEL
MAkGA1UECBMCTkMxEDAOBgNVBAcTB1JhbGVpZ2gxHjAcBgNVBAMTFWxvY2FsaG9z
dC5sb2NhbGRvbWFpbjEfMB0GCSqGSIb3DQEJARYQc2xhZ2xlQHJwYXRoLmNvbTCB
nzANBgkqhkiG9w0BAQEFAAOBjQAwgYkCgYEAu9RcUv84PHNS66/zEghcEZQ3UwAr
fVXAaKymkc5/MHbJ57cM4ZwgaTjk+Rpf+oqXZTn9Qm7zFm9aBbKOux2kJGuidJvo
lf7NYSSoZD7Ya72Si2uAWMge7zkq49WB8w0OmoyuDkqket18oKxKAaRuYW3/4foz
33hcjF5NFJRqFGcCAwEAAaOCAX4wggF6MAkGA1UdEwQCMAAwCwYDVR0PBAQDAgXg
MB0GA1UdDgQWBBTWU87Bk2/vaJj1pFnAPl+7WeYvBjCBmAYDVR0jBIGQMIGNgBTW
U87Bk2/vaJj1pFnAPl+7WeYvBqFxpG8wbTELMAkGA1UEBhMCVVMxCzAJBgNVBAgT
Ak5DMRAwDgYDVQQHEwdSYWxlaWdoMR4wHAYDVQQDExVsb2NhbGhvc3QubG9jYWxk
b21haW4xHzAdBgkqhkiG9w0BCQEWEHNsYWdsZUBycGF0aC5jb22CAmZgMBsGA1Ud
EQQUMBKBEHNsYWdsZUBycGF0aC5jb20wGwYDVR0SBBQwEoEQc2xhZ2xlQHJwYXRo
LmNvbTAdBgNVHSUEFjAUBggrBgEFBQcDAQYIKwYBBQUHAwIwEQYJYIZIAYb4QgEB
BAQDAgZAMDoGCWCGSAGG+EIBDQQtFitBdXRvLWdlbmVyYXRlZCBzZWxmIHNpZ25l
ZCB0ZXN0IGNlcnRpZmljYXRlMA0GCSqGSIb3DQEBBQUAA4GBAGwXwYcgAZOLPNwx
wX78lRk9DfOhwnscKehD6Nx8pBSIbR0n016wWpTRerYgkVifNEdbVVab5suezTVg
qNu/TT5NXkjMFBd1Ab7sP039zUXlcpaNc+MIO4hgyHkcKDDI5gnqlt2prBhx21Oi
TVk988M+jU69ojHVfotGg4htx4hQ
-----END CERTIFICATE-----
