Certificate:
    Data:
        Version: 3 (0x2)
        Serial Number: 1097 (0x449)
        Signature Algorithm: sha1WithRSAEncryption
        Issuer: C=US, CN=localhost/emailAddress=dbc@rpath.com
        Validity
            Not Before: Aug 21 22:18:39 2008 GMT
            Not After : Aug 21 22:18:39 2009 GMT
        Subject: C=US, CN=localhost/emailAddress=dbc@rpath.com
        Subject Public Key Info:
            Public Key Algorithm: rsaEncryption
            RSA Public Key: (1024 bit)
                Modulus (1024 bit):
                    00:b3:dc:f5:5a:2e:76:84:ec:85:1b:21:1d:3c:f5:
                    60:85:27:a3:57:cc:89:8e:1b:5a:07:f6:29:8d:90:
                    26:75:0c:5e:e2:7d:b1:eb:94:db:39:ff:ce:bd:4a:
                    4d:81:05:e0:38:a4:98:2f:67:e2:d1:7d:4e:4f:2a:
                    cc:ae:27:71:72:66:ed:24:f8:5c:45:1e:09:6b:73:
                    56:92:c5:34:a8:21:b2:02:5c:f1:31:02:33:50:0a:
                    19:60:70:1c:24:2e:50:90:8e:e6:7b:0d:f6:da:15:
                    e3:51:56:0f:4b:15:7e:02:22:4b:80:fe:4a:6f:82:
                    89:a7:e1:d3:7c:ec:41:2f:d5
                Exponent: 65537 (0x10001)
        X509v3 extensions:
            X509v3 Basic Constraints: 
                CA:FALSE
            X509v3 Key Usage: 
                Digital Signature, Non Repudiation, Key Encipherment
            X509v3 Subject Key Identifier: 
                F3:90:48:81:35:E0:AB:0E:8F:3C:EB:D8:9F:89:4A:5D:37:48:D0:78
            X509v3 Authority Key Identifier: 
                keyid:F3:90:48:81:35:E0:AB:0E:8F:3C:EB:D8:9F:89:4A:5D:37:48:D0:78
                DirName:/C=US/CN=localhost/emailAddress=dbc@rpath.com
                serial:04:49

            X509v3 Subject Alternative Name: 
                email:dbc@rpath.com
            X509v3 Issuer Alternative Name: 
                email:dbc@rpath.com
            X509v3 Extended Key Usage: 
                TLS Web Server Authentication, TLS Web Client Authentication
            Netscape Cert Type: 
                SSL Server
            Netscape Comment: 
                Auto-generated self signed test certificate
    Signature Algorithm: sha1WithRSAEncryption
        6b:bc:6c:49:f1:79:53:af:e4:cd:21:b2:ad:fd:34:52:df:31:
        d2:a4:52:74:94:76:2f:6b:e4:8c:ef:c9:70:1e:c3:ca:a6:52:
        20:88:b0:52:21:b9:b7:d8:50:17:50:bb:ff:19:04:1e:5b:6f:
        42:bf:a9:02:7f:e6:51:5f:41:de:64:2a:cc:23:ef:8e:f1:ad:
        8d:1a:fe:ab:ff:d2:4e:2a:6b:3f:9f:2d:92:c7:db:cf:e8:95:
        e3:b9:e9:1a:d8:7e:d2:10:8f:f0:ea:20:0f:7f:ce:0f:cd:cb:
        6e:7f:19:fe:16:da:a5:14:69:9d:15:10:cc:42:31:c0:67:04:
        0d:63
-----BEGIN CERTIFICATE-----
MIIDPjCCAqegAwIBAgICBEkwDQYJKoZIhvcNAQEFBQAwPzELMAkGA1UEBhMCVVMx
EjAQBgNVBAMTCWxvY2FsaG9zdDEcMBoGCSqGSIb3DQEJARYNZGJjQHJwYXRoLmNv
bTAeFw0wODA4MjEyMjE4MzlaFw0wOTA4MjEyMjE4MzlaMD8xCzAJBgNVBAYTAlVT
MRIwEAYDVQQDEwlsb2NhbGhvc3QxHDAaBgkqhkiG9w0BCQEWDWRiY0BycGF0aC5j
b20wgZ8wDQYJKoZIhvcNAQEBBQADgY0AMIGJAoGBALPc9VoudoTshRshHTz1YIUn
o1fMiY4bWgf2KY2QJnUMXuJ9seuU2zn/zr1KTYEF4DikmC9n4tF9Tk8qzK4ncXJm
7ST4XEUeCWtzVpLFNKghsgJc8TECM1AKGWBwHCQuUJCO5nsN9toV41FWD0sVfgIi
S4D+Sm+Ciafh03zsQS/VAgMBAAGjggFHMIIBQzAJBgNVHRMEAjAAMAsGA1UdDwQE
AwIF4DAdBgNVHQ4EFgQU85BIgTXgqw6PPOvYn4lKXTdI0HgwaAYDVR0jBGEwX4AU
85BIgTXgqw6PPOvYn4lKXTdI0HihQ6RBMD8xCzAJBgNVBAYTAlVTMRIwEAYDVQQD
Ewlsb2NhbGhvc3QxHDAaBgkqhkiG9w0BCQEWDWRiY0BycGF0aC5jb22CAgRJMBgG
A1UdEQQRMA+BDWRiY0BycGF0aC5jb20wGAYDVR0SBBEwD4ENZGJjQHJwYXRoLmNv
bTAdBgNVHSUEFjAUBggrBgEFBQcDAQYIKwYBBQUHAwIwEQYJYIZIAYb4QgEBBAQD
AgZAMDoGCWCGSAGG+EIBDQQtFitBdXRvLWdlbmVyYXRlZCBzZWxmIHNpZ25lZCB0
ZXN0IGNlcnRpZmljYXRlMA0GCSqGSIb3DQEBBQUAA4GBAGu8bEnxeVOv5M0hsq39
NFLfMdKkUnSUdi9r5IzvyXAew8qmUiCIsFIhubfYUBdQu/8ZBB5bb0K/qQJ/5lFf
Qd5kKswj747xrY0a/qv/0k4qaz+fLZLH28/oleO56RrYftIQj/DqIA9/zg/Ny25/
Gf4W2qUUaZ0VEMxCMcBnBA1j
-----END CERTIFICATE-----
