Certificate:
    Data:
        Version: 3 (0x2)
        Serial Number: 11247 (0x2bef)
        Signature Algorithm: md5WithRSAEncryption
        Issuer: C=US, ST=NC, L=Raleigh, O=rPath, Inc., OU=rBuilder Development, CN=*.rpath.local/emailAddress=rbuilder-list@rpath.com
        Validity
            Not Before: Mar 21 18:18:48 2006 GMT
            Not After : Mar 21 18:18:48 2007 GMT
        Subject: C=US, ST=NC, L=Raleigh, O=rPath, Inc., OU=rBuilder Development, CN=*.rpath.local/emailAddress=rbuilder-list@rpath.com
        Subject Public Key Info:
            Public Key Algorithm: rsaEncryption
            RSA Public Key: (1024 bit)
                Modulus (1024 bit):
                    00:bb:8b:65:fd:73:14:f7:8b:30:6f:36:b4:41:5d:
                    be:df:04:0d:ed:c3:53:54:49:dd:5f:13:37:ee:ff:
                    68:d8:fe:dc:20:ae:68:b1:0f:06:25:8b:38:26:4f:
                    12:94:17:40:f8:dc:7d:3a:b9:87:d4:6b:54:3c:c7:
                    44:39:7b:65:45:92:d6:41:5d:44:c2:50:b1:5a:30:
                    47:13:46:27:b1:f2:a3:20:95:92:45:12:37:54:81:
                    fe:f6:9b:cc:00:3a:32:18:2c:cc:56:ea:6c:83:c0:
                    f7:cf:dd:7b:3c:1d:5c:b5:eb:4b:8c:61:ce:6f:76:
                    54:b0:f7:03:fd:b2:60:7e:5d
                Exponent: 65537 (0x10001)
        X509v3 extensions:
            X509v3 Basic Constraints: 
                CA:FALSE
            X509v3 Key Usage: 
                Digital Signature, Non Repudiation, Key Encipherment
            X509v3 Subject Key Identifier: 
                05:5B:06:CE:22:EB:87:57:85:4A:9E:CA:4E:81:65:B3:3F:78:E4:4D
            X509v3 Authority Key Identifier: 
                keyid:05:5B:06:CE:22:EB:87:57:85:4A:9E:CA:4E:81:65:B3:3F:78:E4:4D
                DirName:/C=US/ST=NC/L=Raleigh/O=rPath, Inc./OU=rBuilder Development/CN=*.rpath.local/emailAddress=rbuilder-list@rpath.com
                serial:2B:EF

            X509v3 Subject Alternative Name: 
                email:rbuilder-list@rpath.com
            X509v3 Issuer Alternative Name: 
                email:rbuilder-list@rpath.com
            X509v3 Extended Key Usage: 
                TLS Web Server Authentication, TLS Web Client Authentication
            Netscape Cert Type: 
                SSL Server
            Netscape Comment: 
                Auto-generated self signed test certificate
    Signature Algorithm: md5WithRSAEncryption
        05:61:58:9f:aa:40:dd:30:81:aa:5a:f0:7a:b8:71:27:2c:81:
        d9:6b:cf:ab:33:4f:9a:60:2f:0b:af:53:2e:86:29:b7:df:35:
        15:8d:f6:6a:7b:b6:70:08:08:bd:8f:86:33:40:92:5b:9e:f1:
        4f:66:66:8b:c9:82:a7:67:af:4a:81:0d:cc:a1:b7:ae:84:b1:
        57:f1:0c:3c:4b:a6:f4:b4:ba:64:f3:da:2e:09:06:09:d9:44:
        6e:e3:1d:f2:1f:2f:59:2e:5b:61:15:81:65:98:28:8b:da:b2:
        ee:02:2b:87:0e:4c:9d:69:eb:d8:67:8c:e0:85:b5:87:95:32:
        36:53
-----BEGIN CERTIFICATE-----
MIIEgDCCA+mgAwIBAgICK+8wDQYJKoZIhvcNAQEEBQAwgaExCzAJBgNVBAYTAlVT
MQswCQYDVQQIEwJOQzEQMA4GA1UEBxMHUmFsZWlnaDEUMBIGA1UEChMLclBhdGgs
IEluYy4xHTAbBgNVBAsTFHJCdWlsZGVyIERldmVsb3BtZW50MRYwFAYDVQQDFA0q
LnJwYXRoLmxvY2FsMSYwJAYJKoZIhvcNAQkBFhdyYnVpbGRlci1saXN0QHJwYXRo
LmNvbTAeFw0wNjAzMjExODE4NDhaFw0wNzAzMjExODE4NDhaMIGhMQswCQYDVQQG
EwJVUzELMAkGA1UECBMCTkMxEDAOBgNVBAcTB1JhbGVpZ2gxFDASBgNVBAoTC3JQ
YXRoLCBJbmMuMR0wGwYDVQQLExRyQnVpbGRlciBEZXZlbG9wbWVudDEWMBQGA1UE
AxQNKi5ycGF0aC5sb2NhbDEmMCQGCSqGSIb3DQEJARYXcmJ1aWxkZXItbGlzdEBy
cGF0aC5jb20wgZ8wDQYJKoZIhvcNAQEBBQADgY0AMIGJAoGBALuLZf1zFPeLMG82
tEFdvt8EDe3DU1RJ3V8TN+7/aNj+3CCuaLEPBiWLOCZPEpQXQPjcfTq5h9RrVDzH
RDl7ZUWS1kFdRMJQsVowRxNGJ7HyoyCVkkUSN1SB/vabzAA6MhgszFbqbIPA98/d
ezwdXLXrS4xhzm92VLD3A/2yYH5dAgMBAAGjggHDMIIBvzAJBgNVHRMEAjAAMAsG
A1UdDwQEAwIF4DAdBgNVHQ4EFgQUBVsGziLrh1eFSp7KToFlsz945E0wgc8GA1Ud
IwSBxzCBxIAUBVsGziLrh1eFSp7KToFlsz945E2hgaekgaQwgaExCzAJBgNVBAYT
AlVTMQswCQYDVQQIEwJOQzEQMA4GA1UEBxMHUmFsZWlnaDEUMBIGA1UEChMLclBh
dGgsIEluYy4xHTAbBgNVBAsTFHJCdWlsZGVyIERldmVsb3BtZW50MRYwFAYDVQQD
FA0qLnJwYXRoLmxvY2FsMSYwJAYJKoZIhvcNAQkBFhdyYnVpbGRlci1saXN0QHJw
YXRoLmNvbYICK+8wIgYDVR0RBBswGYEXcmJ1aWxkZXItbGlzdEBycGF0aC5jb20w
IgYDVR0SBBswGYEXcmJ1aWxkZXItbGlzdEBycGF0aC5jb20wHQYDVR0lBBYwFAYI
KwYBBQUHAwEGCCsGAQUFBwMCMBEGCWCGSAGG+EIBAQQEAwIGQDA6BglghkgBhvhC
AQ0ELRYrQXV0by1nZW5lcmF0ZWQgc2VsZiBzaWduZWQgdGVzdCBjZXJ0aWZpY2F0
ZTANBgkqhkiG9w0BAQQFAAOBgQAFYVifqkDdMIGqWvB6uHEnLIHZa8+rM0+aYC8L
r1Muhim33zUVjfZqe7ZwCAi9j4YzQJJbnvFPZmaLyYKnZ69KgQ3MobeuhLFX8Qw8
S6b0tLpk89ouCQYJ2URu4x3yHy9ZLlthFYFlmCiL2rLuAiuHDkydaevYZ4zghbWH
lTI2Uw==
-----END CERTIFICATE-----
